target datalayout = "e-m:e-p270:32:32-p271:32:32-p272:64:64-i64:64-i128:128-f80:128-n8:16:32:64-S128"
target triple = "x86_64-pc-linux-gnu"

; Function Attrs: inlinehint nounwind uwtable
define internal i32 @rnd_avg32(i32 noundef %0, i32 noundef %1) #1 {
  %3 = alloca i32, align 4
  %4 = alloca i32, align 4
  store i32 %0, ptr %3, align 4, !tbaa !12
  store i32 %1, ptr %4, align 4, !tbaa !12
  %5 = load i32, ptr %3, align 4, !tbaa !12
  %6 = load i32, ptr %4, align 4, !tbaa !12
  %7 = or i32 %5, %6
  %8 = zext i32 %7 to i64
  %9 = load i32, ptr %3, align 4, !tbaa !12
  %10 = load i32, ptr %4, align 4, !tbaa !12
  %11 = xor i32 %9, %10
  %12 = zext i32 %11 to i64
  %13 = and i64 %12, -16843010
  %14 = lshr i64 %13, 1
  %15 = sub i64 %8, %14
  %16 = trunc i64 %15 to i32
  ret i32 %16
}

; Function Attrs: nounwind uwtable
define internal void @avg_pixels16_8_c(ptr noundef %0, ptr noundef %1, i64 noundef %2, i32 noundef %3) #2 {
  %5 = alloca ptr, align 8
  %6 = alloca ptr, align 8
  %7 = alloca i64, align 8
  %8 = alloca i32, align 4
  store ptr %0, ptr %5, align 8, !tbaa !10
  store ptr %1, ptr %6, align 8, !tbaa !10
  store i64 %2, ptr %7, align 8, !tbaa !48
  store i32 %3, ptr %8, align 4, !tbaa !12
  %9 = load ptr, ptr %5, align 8, !tbaa !10
  %10 = load ptr, ptr %6, align 8, !tbaa !10
  %11 = load i64, ptr %7, align 8, !tbaa !48
  %12 = load i32, ptr %8, align 4, !tbaa !12
  call void @avg_pixels8_8_c(ptr noundef %9, ptr noundef %10, i64 noundef %11, i32 noundef %12)
  %13 = load ptr, ptr %5, align 8, !tbaa !10
  %14 = getelementptr inbounds nuw i8, ptr %13, i64 8
  %15 = load ptr, ptr %6, align 8, !tbaa !10
  %16 = getelementptr inbounds nuw i8, ptr %15, i64 8
  %17 = load i64, ptr %7, align 8, !tbaa !48
  %18 = load i32, ptr %8, align 4, !tbaa !12
  call void @avg_pixels8_8_c(ptr noundef %14, ptr noundef %16, i64 noundef %17, i32 noundef %18)
  ret void
}

; Function Attrs: inlinehint nounwind uwtable
define internal void @avg_pixels8_8_c(ptr noundef %0, ptr noundef %1, i64 noundef %2, i32 noundef %3) #1 {
  %5 = alloca ptr, align 8
  %6 = alloca ptr, align 8
  %7 = alloca i64, align 8
  %8 = alloca i32, align 4
  %9 = alloca i32, align 4
  store ptr %0, ptr %5, align 8, !tbaa !10
  store ptr %1, ptr %6, align 8, !tbaa !10
  store i64 %2, ptr %7, align 8, !tbaa !48
  store i32 %3, ptr %8, align 4, !tbaa !12
  call void @llvm.lifetime.start.p0(i64 4, ptr %9) #4
  store i32 0, ptr %9, align 4, !tbaa !12
  br label %10

10:                                               ; preds = %36, %4
  %11 = load i32, ptr %9, align 4, !tbaa !12
  %12 = load i32, ptr %8, align 4, !tbaa !12
  %13 = icmp slt i32 %11, %12
  br i1 %13, label %14, label %39

14:                                               ; preds = %10
  %15 = load ptr, ptr %5, align 8, !tbaa !10
  %16 = load i32, ptr %15, align 4, !tbaa !12
  %17 = load ptr, ptr %6, align 8, !tbaa !10
  %18 = load i32, ptr %17, align 1, !tbaa !14
  %19 = call i32 @rnd_avg32(i32 noundef %16, i32 noundef %18)
  %20 = load ptr, ptr %5, align 8, !tbaa !10
  store i32 %19, ptr %20, align 4, !tbaa !12
  %21 = load ptr, ptr %5, align 8, !tbaa !10
  %22 = getelementptr inbounds nuw i8, ptr %21, i64 4
  %23 = load i32, ptr %22, align 4, !tbaa !12
  %24 = load ptr, ptr %6, align 8, !tbaa !10
  %25 = getelementptr inbounds nuw i8, ptr %24, i64 4
  %26 = load i32, ptr %25, align 1, !tbaa !14
  %27 = call i32 @rnd_avg32(i32 noundef %23, i32 noundef %26)
  %28 = load ptr, ptr %5, align 8, !tbaa !10
  %29 = getelementptr inbounds nuw i8, ptr %28, i64 4
  store i32 %27, ptr %29, align 4, !tbaa !12
  %30 = load i64, ptr %7, align 8, !tbaa !48
  %31 = load ptr, ptr %6, align 8, !tbaa !10
  %32 = getelementptr inbounds i8, ptr %31, i64 %30
  store ptr %32, ptr %6, align 8, !tbaa !10
  %33 = load i64, ptr %7, align 8, !tbaa !48
  %34 = load ptr, ptr %5, align 8, !tbaa !10
  %35 = getelementptr inbounds i8, ptr %34, i64 %33
  store ptr %35, ptr %5, align 8, !tbaa !10
  br label %36

36:                                               ; preds = %14
  %37 = load i32, ptr %9, align 4, !tbaa !12
  %38 = add nsw i32 %37, 1
  store i32 %38, ptr %9, align 4, !tbaa !12
  br label %10, !llvm.loop !57

39:                                               ; preds = %10
  call void @llvm.lifetime.end.p0(i64 4, ptr %9) #4
  ret void
}

; Function Attrs: inlinehint nounwind uwtable
define internal void @avg_pixels4_8_c(ptr noundef %0, ptr noundef %1, i64 noundef %2, i32 noundef %3) #1 {
  %5 = alloca ptr, align 8
  %6 = alloca ptr, align 8
  %7 = alloca i64, align 8
  %8 = alloca i32, align 4
  %9 = alloca i32, align 4
  store ptr %0, ptr %5, align 8, !tbaa !10
  store ptr %1, ptr %6, align 8, !tbaa !10
  store i64 %2, ptr %7, align 8, !tbaa !48
  store i32 %3, ptr %8, align 4, !tbaa !12
  call void @llvm.lifetime.start.p0(i64 4, ptr %9) #4
  store i32 0, ptr %9, align 4, !tbaa !12
  br label %10

10:                                               ; preds = %27, %4
  %11 = load i32, ptr %9, align 4, !tbaa !12
  %12 = load i32, ptr %8, align 4, !tbaa !12
  %13 = icmp slt i32 %11, %12
  br i1 %13, label %14, label %30

14:                                               ; preds = %10
  %15 = load ptr, ptr %5, align 8, !tbaa !10
  %16 = load i32, ptr %15, align 4, !tbaa !12
  %17 = load ptr, ptr %6, align 8, !tbaa !10
  %18 = load i32, ptr %17, align 1, !tbaa !14
  %19 = call i32 @rnd_avg32(i32 noundef %16, i32 noundef %18)
  %20 = load ptr, ptr %5, align 8, !tbaa !10
  store i32 %19, ptr %20, align 4, !tbaa !12
  %21 = load i64, ptr %7, align 8, !tbaa !48
  %22 = load ptr, ptr %6, align 8, !tbaa !10
  %23 = getelementptr inbounds i8, ptr %22, i64 %21
  store ptr %23, ptr %6, align 8, !tbaa !10
  %24 = load i64, ptr %7, align 8, !tbaa !48
  %25 = load ptr, ptr %5, align 8, !tbaa !10
  %26 = getelementptr inbounds i8, ptr %25, i64 %24
  store ptr %26, ptr %5, align 8, !tbaa !10
  br label %27

27:                                               ; preds = %14
  %28 = load i32, ptr %9, align 4, !tbaa !12
  %29 = add nsw i32 %28, 1
  store i32 %29, ptr %9, align 4, !tbaa !12
  br label %10, !llvm.loop !56

30:                                               ; preds = %10
  call void @llvm.lifetime.end.p0(i64 4, ptr %9) #4
  ret void
}

; Function Attrs: inlinehint nounwind uwtable
define internal void @avg_pixels2_8_c(ptr noundef %0, ptr noundef %1, i64 noundef %2, i32 noundef %3) #1 {
  %5 = alloca ptr, align 8
  %6 = alloca ptr, align 8
  %7 = alloca i64, align 8
  %8 = alloca i32, align 4
  %9 = alloca i32, align 4
  store ptr %0, ptr %5, align 8, !tbaa !10
  store ptr %1, ptr %6, align 8, !tbaa !10
  store i64 %2, ptr %7, align 8, !tbaa !48
  store i32 %3, ptr %8, align 4, !tbaa !12
  call void @llvm.lifetime.start.p0(i64 4, ptr %9) #4
  store i32 0, ptr %9, align 4, !tbaa !12
  br label %10

10:                                               ; preds = %30, %4
  %11 = load i32, ptr %9, align 4, !tbaa !12
  %12 = load i32, ptr %8, align 4, !tbaa !12
  %13 = icmp slt i32 %11, %12
  br i1 %13, label %14, label %33

14:                                               ; preds = %10
  %15 = load ptr, ptr %5, align 8, !tbaa !10
  %16 = load i16, ptr %15, align 2, !tbaa !50
  %17 = zext i16 %16 to i32
  %18 = load ptr, ptr %6, align 8, !tbaa !10
  %19 = load i16, ptr %18, align 1, !tbaa !14
  %20 = zext i16 %19 to i32
  %21 = call i32 @rnd_avg32(i32 noundef %17, i32 noundef %20)
  %22 = trunc i32 %21 to i16
  %23 = load ptr, ptr %5, align 8, !tbaa !10
  store i16 %22, ptr %23, align 2, !tbaa !50
  %24 = load i64, ptr %7, align 8, !tbaa !48
  %25 = load ptr, ptr %6, align 8, !tbaa !10
  %26 = getelementptr inbounds i8, ptr %25, i64 %24
  store ptr %26, ptr %6, align 8, !tbaa !10
  %27 = load i64, ptr %7, align 8, !tbaa !48
  %28 = load ptr, ptr %5, align 8, !tbaa !10
  %29 = getelementptr inbounds i8, ptr %28, i64 %27
  store ptr %29, ptr %5, align 8, !tbaa !10
  br label %30

30:                                               ; preds = %14
  %31 = load i32, ptr %9, align 4, !tbaa !12
  %32 = add nsw i32 %31, 1
  store i32 %32, ptr %9, align 4, !tbaa !12
  br label %10, !llvm.loop !55

33:                                               ; preds = %10
  call void @llvm.lifetime.end.p0(i64 4, ptr %9) #4
  ret void
}

; Function Attrs: inlinehint nounwind uwtable
define internal void @avg_tpel_pixels_mc00_c(ptr noundef %0, ptr noundef %1, i32 noundef %2, i32 noundef %3, i32 noundef %4) #1 {
  %6 = alloca ptr, align 8
  %7 = alloca ptr, align 8
  %8 = alloca i32, align 4
  %9 = alloca i32, align 4
  %10 = alloca i32, align 4
  store ptr %0, ptr %6, align 8, !tbaa !10
  store ptr %1, ptr %7, align 8, !tbaa !10
  store i32 %2, ptr %8, align 4, !tbaa !12
  store i32 %3, ptr %9, align 4, !tbaa !12
  store i32 %4, ptr %10, align 4, !tbaa !12
  %11 = load i32, ptr %9, align 4, !tbaa !12
  switch i32 %11, label %36 [
    i32 2, label %12
    i32 4, label %18
    i32 8, label %24
    i32 16, label %30
  ]

12:                                               ; preds = %5
  %13 = load ptr, ptr %6, align 8, !tbaa !10
  %14 = load ptr, ptr %7, align 8, !tbaa !10
  %15 = load i32, ptr %8, align 4, !tbaa !12
  %16 = sext i32 %15 to i64
  %17 = load i32, ptr %10, align 4, !tbaa !12
  call void @avg_pixels2_8_c(ptr noundef %13, ptr noundef %14, i64 noundef %16, i32 noundef %17)
  br label %36

18:                                               ; preds = %5
  %19 = load ptr, ptr %6, align 8, !tbaa !10
  %20 = load ptr, ptr %7, align 8, !tbaa !10
  %21 = load i32, ptr %8, align 4, !tbaa !12
  %22 = sext i32 %21 to i64
  %23 = load i32, ptr %10, align 4, !tbaa !12
  call void @avg_pixels4_8_c(ptr noundef %19, ptr noundef %20, i64 noundef %22, i32 noundef %23)
  br label %36

24:                                               ; preds = %5
  %25 = load ptr, ptr %6, align 8, !tbaa !10
  %26 = load ptr, ptr %7, align 8, !tbaa !10
  %27 = load i32, ptr %8, align 4, !tbaa !12
  %28 = sext i32 %27 to i64
  %29 = load i32, ptr %10, align 4, !tbaa !12
  call void @avg_pixels8_8_c(ptr noundef %25, ptr noundef %26, i64 noundef %28, i32 noundef %29)
  br label %36

30:                                               ; preds = %5
  %31 = load ptr, ptr %6, align 8, !tbaa !10
  %32 = load ptr, ptr %7, align 8, !tbaa !10
  %33 = load i32, ptr %8, align 4, !tbaa !12
  %34 = sext i32 %33 to i64
  %35 = load i32, ptr %10, align 4, !tbaa !12
  call void @avg_pixels16_8_c(ptr noundef %31, ptr noundef %32, i64 noundef %34, i32 noundef %35)
  br label %36

36:                                               ; preds = %5, %30, %24, %18, %12
  ret void
}