; Function Attrs: inlinehint nofree norecurse nosync nounwind memory(argmem: readwrite) uwtable
define internal void @avg_tpel_pixels_mc00_c(ptr noundef captures(none) %0, ptr noundef readonly captures(none) %1, i32 noundef %2, i32 noundef %3, i32 noundef %4) #1 {
  %6 = add i32 %3, -2
  %7 = tail call i32 @llvm.fshl.i32(i32 %6, i32 %6, i32 31)
  switch i32 %7, label %avg_pixels2_8_c.exit [
    i32 0, label %8
    i32 1, label %21
    i32 3, label %34
    i32 7, label %56
  ]

8:                                                ; preds = %5
  %9 = sext i32 %2 to i64
  %10 = icmp sgt i32 %4, 0
  br i1 %10, label %.lr.ph.i, label %avg_pixels2_8_c.exit

.lr.ph.i:                                         ; preds = %8, %.lr.ph.i
  %.013.i = phi i32 [ %20, %.lr.ph.i ], [ 0, %8 ]
  %.0912.i = phi ptr [ %19, %.lr.ph.i ], [ %0, %8 ]
  %.01011.i = phi ptr [ %18, %.lr.ph.i ], [ %1, %8 ]
  %11 = load i16, ptr %.0912.i, align 2, !tbaa !9
  %12 = load i16, ptr %.01011.i, align 1, !tbaa !8
  %13 = or i16 %12, %11
  %14 = xor i16 %12, %11
  %15 = lshr i16 %14, 1
  %16 = and i16 %15, 32639
  %17 = sub i16 %13, %16
  store i16 %17, ptr %.0912.i, align 2, !tbaa !9
  %18 = getelementptr inbounds i8, ptr %.01011.i, i64 %9
  %19 = getelementptr inbounds i8, ptr %.0912.i, i64 %9
  %20 = add nuw nsw i32 %.013.i, 1
  %exitcond.not.i = icmp eq i32 %20, %4
  br i1 %exitcond.not.i, label %avg_pixels2_8_c.exit, label %.lr.ph.i, !llvm.loop !33

21:                                               ; preds = %5
  %22 = sext i32 %2 to i64
  %23 = icmp sgt i32 %4, 0
  br i1 %23, label %.lr.ph.i16, label %avg_pixels2_8_c.exit

.lr.ph.i16:                                       ; preds = %21, %.lr.ph.i16
  %.013.i17 = phi i32 [ %33, %.lr.ph.i16 ], [ 0, %21 ]
  %.0912.i18 = phi ptr [ %32, %.lr.ph.i16 ], [ %0, %21 ]
  %.01011.i19 = phi ptr [ %31, %.lr.ph.i16 ], [ %1, %21 ]
  %24 = load i32, ptr %.0912.i18, align 4, !tbaa !13
  %25 = load i32, ptr %.01011.i19, align 1, !tbaa !8
  %26 = or i32 %25, %24
  %27 = xor i32 %25, %24
  %28 = lshr i32 %27, 1
  %29 = and i32 %28, 2139062143
  %30 = sub i32 %26, %29
  store i32 %30, ptr %.0912.i18, align 4, !tbaa !13
  %31 = getelementptr inbounds i8, ptr %.01011.i19, i64 %22
  %32 = getelementptr inbounds i8, ptr %.0912.i18, i64 %22
  %33 = add nuw nsw i32 %.013.i17, 1
  %exitcond.not.i20 = icmp eq i32 %33, %4
  br i1 %exitcond.not.i20, label %avg_pixels2_8_c.exit, label %.lr.ph.i16, !llvm.loop !34

34:                                               ; preds = %5
  %35 = sext i32 %2 to i64
  %36 = icmp sgt i32 %4, 0
  br i1 %36, label %.lr.ph.i21, label %avg_pixels2_8_c.exit

.lr.ph.i21:                                       ; preds = %34, %.lr.ph.i21
  %.016.i = phi i32 [ %55, %.lr.ph.i21 ], [ 0, %34 ]
  %.01215.i = phi ptr [ %54, %.lr.ph.i21 ], [ %0, %34 ]
  %.01314.i = phi ptr [ %53, %.lr.ph.i21 ], [ %1, %34 ]
  %37 = load i32, ptr %.01215.i, align 4, !tbaa !13
  %38 = load i32, ptr %.01314.i, align 1, !tbaa !8
  %39 = or i32 %38, %37
  %40 = xor i32 %38, %37
  %41 = lshr i32 %40, 1
  %42 = and i32 %41, 2139062143
  %43 = sub i32 %39, %42
  store i32 %43, ptr %.01215.i, align 4, !tbaa !13
  %44 = getelementptr inbounds nuw i8, ptr %.01215.i, i64 4
  %45 = load i32, ptr %44, align 4, !tbaa !13
  %46 = getelementptr inbounds nuw i8, ptr %.01314.i, i64 4
  %47 = load i32, ptr %46, align 1, !tbaa !8
  %48 = or i32 %47, %45
  %49 = xor i32 %47, %45
  %50 = lshr i32 %49, 1
  %51 = and i32 %50, 2139062143
  %52 = sub i32 %48, %51
  store i32 %52, ptr %44, align 4, !tbaa !13
  %53 = getelementptr inbounds i8, ptr %.01314.i, i64 %35
  %54 = getelementptr inbounds i8, ptr %.01215.i, i64 %35
  %55 = add nuw nsw i32 %.016.i, 1
  %exitcond.not.i22 = icmp eq i32 %55, %4
  br i1 %exitcond.not.i22, label %avg_pixels2_8_c.exit, label %.lr.ph.i21, !llvm.loop !35

56:                                               ; preds = %5
  %57 = sext i32 %2 to i64
  %58 = icmp sgt i32 %4, 0
  br i1 %58, label %.lr.ph.i.i, label %avg_pixels2_8_c.exit

.lr.ph.i.i:                                       ; preds = %56, %.lr.ph.i.i
  %.016.i.i = phi i32 [ %77, %.lr.ph.i.i ], [ 0, %56 ]
  %.01215.i.i = phi ptr [ %76, %.lr.ph.i.i ], [ %0, %56 ]
  %.01314.i.i = phi ptr [ %75, %.lr.ph.i.i ], [ %1, %56 ]
  %59 = load i32, ptr %.01215.i.i, align 4, !tbaa !13
  %60 = load i32, ptr %.01314.i.i, align 1, !tbaa !8
  %61 = or i32 %60, %59
  %62 = xor i32 %60, %59
  %63 = lshr i32 %62, 1
  %64 = and i32 %63, 2139062143
  %65 = sub i32 %61, %64
  store i32 %65, ptr %.01215.i.i, align 4, !tbaa !13
  %66 = getelementptr inbounds nuw i8, ptr %.01215.i.i, i64 4
  %67 = load i32, ptr %66, align 4, !tbaa !13
  %68 = getelementptr inbounds nuw i8, ptr %.01314.i.i, i64 4
  %69 = load i32, ptr %68, align 1, !tbaa !8
  %70 = or i32 %69, %67
  %71 = xor i32 %69, %67
  %72 = lshr i32 %71, 1
  %73 = and i32 %72, 2139062143
  %74 = sub i32 %70, %73
  store i32 %74, ptr %66, align 4, !tbaa !13
  %75 = getelementptr inbounds i8, ptr %.01314.i.i, i64 %57
  %76 = getelementptr inbounds i8, ptr %.01215.i.i, i64 %57
  %77 = add nuw nsw i32 %.016.i.i, 1
  %exitcond.not.i.i = icmp eq i32 %77, %4
  br i1 %exitcond.not.i.i, label %avg_pixels8_8_c.exit.i, label %.lr.ph.i.i, !llvm.loop !35

avg_pixels8_8_c.exit.i:                           ; preds = %.lr.ph.i.i
  %78 = getelementptr inbounds nuw i8, ptr %0, i64 8
  %79 = getelementptr inbounds nuw i8, ptr %1, i64 8
  br label %.lr.ph.i7.i

.lr.ph.i7.i:                                      ; preds = %.lr.ph.i7.i, %avg_pixels8_8_c.exit.i
  %.016.i8.i = phi i32 [ %98, %.lr.ph.i7.i ], [ 0, %avg_pixels8_8_c.exit.i ]
  %.01215.i9.i = phi ptr [ %97, %.lr.ph.i7.i ], [ %78, %avg_pixels8_8_c.exit.i ]
  %.01314.i10.i = phi ptr [ %96, %.lr.ph.i7.i ], [ %79, %avg_pixels8_8_c.exit.i ]
  %80 = load i32, ptr %.01215.i9.i, align 4, !tbaa !13
  %81 = load i32, ptr %.01314.i10.i, align 1, !tbaa !8
  %82 = or i32 %81, %80
  %83 = xor i32 %81, %80
  %84 = lshr i32 %83, 1
  %85 = and i32 %84, 2139062143
  %86 = sub i32 %82, %85
  store i32 %86, ptr %.01215.i9.i, align 4, !tbaa !13
  %87 = getelementptr inbounds nuw i8, ptr %.01215.i9.i, i64 4
  %88 = load i32, ptr %87, align 4, !tbaa !13
  %89 = getelementptr inbounds nuw i8, ptr %.01314.i10.i, i64 4
  %90 = load i32, ptr %89, align 1, !tbaa !8
  %91 = or i32 %90, %88
  %92 = xor i32 %90, %88
  %93 = lshr i32 %92, 1
  %94 = and i32 %93, 2139062143
  %95 = sub i32 %91, %94
  store i32 %95, ptr %87, align 4, !tbaa !13
  %96 = getelementptr inbounds i8, ptr %.01314.i10.i, i64 %57
  %97 = getelementptr inbounds i8, ptr %.01215.i9.i, i64 %57
  %98 = add nuw nsw i32 %.016.i8.i, 1
  %exitcond.not.i11.i = icmp eq i32 %98, %4
  br i1 %exitcond.not.i11.i, label %avg_pixels2_8_c.exit, label %.lr.ph.i7.i, !llvm.loop !35

avg_pixels2_8_c.exit:                             ; preds = %.lr.ph.i7.i, %.lr.ph.i21, %.lr.ph.i16, %.lr.ph.i, %56, %34, %21, %8, %5
  ret void
}